target datalayout = "e-m:e-p270:32:32-p271:32:32-p272:64:64-i64:64-i128:128-f80:128-n8:16:32:64-S128"
target triple = "x86_64-unknown-linux-gnu"

%"class.std::__shared_count" = type { ptr }
%"class.std::vector.41" = type { %"struct.std::_Vector_base.42" }
%"struct.std::_Vector_base.42" = type { %"struct.std::_Vector_base<unsigned long, std::allocator<unsigned long>>::_Vector_impl" }
%"struct.std::_Vector_base<unsigned long, std::allocator<unsigned long>>::_Vector_impl" = type { %"struct.std::_Vector_base<unsigned long, std::allocator<unsigned long>>::_Vector_impl_data" }
%"struct.std::_Vector_base<unsigned long, std::allocator<unsigned long>>::_Vector_impl_data" = type { ptr, ptr, ptr }
%"class.std::unordered_set" = type { %"class.std::_Hashtable" }
%"class.std::_Hashtable" = type { ptr, i64, %"struct.std::__detail::_Hash_node_base", i64, %"struct.std::__detail::_Prime_rehash_policy", ptr }
%"struct.std::__detail::_Hash_node_base" = type { ptr }
%"struct.std::__detail::_Prime_rehash_policy" = type { float, i64 }
%"class.std::__cxx11::basic_string" = type { %"struct.std::__cxx11::basic_string<char>::_Alloc_hider", i64, %union.anon }
%"struct.std::__cxx11::basic_string<char>::_Alloc_hider" = type { ptr }
%union.anon = type { i64, [8 x i8] }
%"class.std::chrono::duration" = type { i64 }
%"class.rocksdb::Version" = type <{ ptr, ptr, ptr, ptr, ptr, ptr, ptr, ptr, %"class.rocksdb::VersionStorageInfo", ptr, ptr, ptr, i32, [4 x i8], %"struct.rocksdb::FileOptions", %"struct.rocksdb::MutableCFOptions", i64, i64, %"class.std::shared_ptr.115", i8, [7 x i8] }>
%"class.rocksdb::VersionStorageInfo" = type { ptr, ptr, i32, i32, %"class.std::vector.41", %"class.rocksdb::autovector", %"class.rocksdb::FileIndexer", [8 x i8], %"class.rocksdb::Arena", i8, ptr, %"class.std::unordered_map.149", %"class.std::vector.163", i32, i32, double, %"class.std::vector.168", i8, %"class.std::vector.173", %"class.rocksdb::autovector.178", %"class.rocksdb::autovector.178", %"class.rocksdb::autovector.178", %"class.rocksdb::autovector.178", %"class.rocksdb::autovector.178", %"class.rocksdb::autovector.178", i64, i64, %"class.std::vector.184", %"class.std::vector.173", i32, %"class.std::vector.189", i64, i64, i64, i64, i64, i64, i64, i64, i64, ptr, i32, i8, i8, i32, %"struct.rocksdb::OffpeakTimeOption" }
%"class.rocksdb::autovector" = type { i64, [128 x i8], ptr, %"class.std::vector.126" }
%"class.std::vector.126" = type { %"struct.std::_Vector_base.127" }
%"struct.std::_Vector_base.127" = type { %"struct.std::_Vector_base<rocksdb::LevelFilesBrief, std::allocator<rocksdb::LevelFilesBrief>>::_Vector_impl" }
%"struct.std::_Vector_base<rocksdb::LevelFilesBrief, std::allocator<rocksdb::LevelFilesBrief>>::_Vector_impl" = type { %"struct.std::_Vector_base<rocksdb::LevelFilesBrief, std::allocator<rocksdb::LevelFilesBrief>>::_Vector_impl_data" }
%"struct.std::_Vector_base<rocksdb::LevelFilesBrief, std::allocator<rocksdb::LevelFilesBrief>>::_Vector_impl_data" = type { ptr, ptr, ptr }
%"class.rocksdb::FileIndexer" = type { i64, ptr, %"class.rocksdb::autovector.131", ptr }
%"class.rocksdb::autovector.131" = type { i64, [128 x i8], ptr, %"class.std::vector.132" }
%"class.std::vector.132" = type { %"struct.std::_Vector_base.133" }
%"struct.std::_Vector_base.133" = type { %"struct.std::_Vector_base<rocksdb::FileIndexer::IndexLevel, std::allocator<rocksdb::FileIndexer::IndexLevel>>::_Vector_impl" }
%"struct.std::_Vector_base<rocksdb::FileIndexer::IndexLevel, std::allocator<rocksdb::FileIndexer::IndexLevel>>::_Vector_impl" = type { %"struct.std::_Vector_base<rocksdb::FileIndexer::IndexLevel, std::allocator<rocksdb::FileIndexer::IndexLevel>>::_Vector_impl_data" }
%"struct.std::_Vector_base<rocksdb::FileIndexer::IndexLevel, std::allocator<rocksdb::FileIndexer::IndexLevel>>::_Vector_impl_data" = type { ptr, ptr, ptr }
%"class.rocksdb::Arena" = type { %"class.rocksdb::Allocator", [8 x i8], [2048 x i8], i64, %"class.std::deque.137", %"class.std::deque.143", i64, ptr, ptr, i64, i64, i64, ptr }
%"class.rocksdb::Allocator" = type { ptr }
%"class.std::deque.137" = type { %"class.std::_Deque_base.138" }
%"class.std::_Deque_base.138" = type { %"struct.std::_Deque_base<std::unique_ptr<char[]>, std::allocator<std::unique_ptr<char[]>>>::_Deque_impl" }
%"struct.std::_Deque_base<std::unique_ptr<char[]>, std::allocator<std::unique_ptr<char[]>>>::_Deque_impl" = type { %"struct.std::_Deque_base<std::unique_ptr<char[]>, std::allocator<std::unique_ptr<char[]>>>::_Deque_impl_data" }
%"struct.std::_Deque_base<std::unique_ptr<char[]>, std::allocator<std::unique_ptr<char[]>>>::_Deque_impl_data" = type { ptr, i64, %"struct.std::_Deque_iterator.142", %"struct.std::_Deque_iterator.142" }
%"struct.std::_Deque_iterator.142" = type { ptr, ptr, ptr, ptr }
%"class.std::deque.143" = type { %"class.std::_Deque_base.144" }
%"class.std::_Deque_base.144" = type { %"struct.std::_Deque_base<rocksdb::MemMapping, std::allocator<rocksdb::MemMapping>>::_Deque_impl" }
%"struct.std::_Deque_base<rocksdb::MemMapping, std::allocator<rocksdb::MemMapping>>::_Deque_impl" = type { %"struct.std::_Deque_base<rocksdb::MemMapping, std::allocator<rocksdb::MemMapping>>::_Deque_impl_data" }
%"struct.std::_Deque_base<rocksdb::MemMapping, std::allocator<rocksdb::MemMapping>>::_Deque_impl_data" = type { ptr, i64, %"struct.std::_Deque_iterator.148", %"struct.std::_Deque_iterator.148" }
%"struct.std::_Deque_iterator.148" = type { ptr, ptr, ptr, ptr }
%"class.std::unordered_map.149" = type { %"class.std::_Hashtable.150" }
%"class.std::_Hashtable.150" = type { ptr, i64, %"struct.std::__detail::_Hash_node_base", i64, %"struct.std::__detail::_Prime_rehash_policy", ptr }
%"class.std::vector.163" = type { %"struct.std::_Vector_base.164" }
%"struct.std::_Vector_base.164" = type { %"struct.std::_Vector_base<std::shared_ptr<rocksdb::BlobFileMetaData>, std::allocator<std::shared_ptr<rocksdb::BlobFileMetaData>>>::_Vector_impl" }
%"struct.std::_Vector_base<std::shared_ptr<rocksdb::BlobFileMetaData>, std::allocator<std::shared_ptr<rocksdb::BlobFileMetaData>>>::_Vector_impl" = type { %"struct.std::_Vector_base<std::shared_ptr<rocksdb::BlobFileMetaData>, std::allocator<std::shared_ptr<rocksdb::BlobFileMetaData>>>::_Vector_impl_data" }
%"struct.std::_Vector_base<std::shared_ptr<rocksdb::BlobFileMetaData>, std::allocator<std::shared_ptr<rocksdb::BlobFileMetaData>>>::_Vector_impl_data" = type { ptr, ptr, ptr }
%"class.std::vector.168" = type { %"struct.std::_Vector_base.169" }
%"struct.std::_Vector_base.169" = type { %"struct.std::_Vector_base<std::vector<int>, std::allocator<std::vector<int>>>::_Vector_impl" }
%"struct.std::_Vector_base<std::vector<int>, std::allocator<std::vector<int>>>::_Vector_impl" = type { %"struct.std::_Vector_base<std::vector<int>, std::allocator<std::vector<int>>>::_Vector_impl_data" }
%"struct.std::_Vector_base<std::vector<int>, std::allocator<std::vector<int>>>::_Vector_impl_data" = type { ptr, ptr, ptr }
%"class.rocksdb::autovector.178" = type { i64, [128 x i8], ptr, %"class.std::vector.179" }
%"class.std::vector.179" = type { %"struct.std::_Vector_base.180" }
%"struct.std::_Vector_base.180" = type { %"struct.std::_Vector_base<std::pair<int, rocksdb::FileMetaData *>, std::allocator<std::pair<int, rocksdb::FileMetaData *>>>::_Vector_impl" }
%"struct.std::_Vector_base<std::pair<int, rocksdb::FileMetaData *>, std::allocator<std::pair<int, rocksdb::FileMetaData *>>>::_Vector_impl" = type { %"struct.std::_Vector_base<std::pair<int, rocksdb::FileMetaData *>, std::allocator<std::pair<int, rocksdb::FileMetaData *>>>::_Vector_impl_data" }
%"struct.std::_Vector_base<std::pair<int, rocksdb::FileMetaData *>, std::allocator<std::pair<int, rocksdb::FileMetaData *>>>::_Vector_impl_data" = type { ptr, ptr, ptr }
%"class.std::vector.184" = type { %"struct.std::_Vector_base.185" }
%"struct.std::_Vector_base.185" = type { %"struct.std::_Vector_base<double, std::allocator<double>>::_Vector_impl" }
%"struct.std::_Vector_base<double, std::allocator<double>>::_Vector_impl" = type { %"struct.std::_Vector_base<double, std::allocator<double>>::_Vector_impl_data" }
%"struct.std::_Vector_base<double, std::allocator<double>>::_Vector_impl_data" = type { ptr, ptr, ptr }
%"class.std::vector.173" = type { %"struct.std::_Vector_base.174" }
%"struct.std::_Vector_base.174" = type { %"struct.std::_Vector_base<int, std::allocator<int>>::_Vector_impl" }
%"struct.std::_Vector_base<int, std::allocator<int>>::_Vector_impl" = type { %"struct.std::_Vector_base<int, std::allocator<int>>::_Vector_impl_data" }
%"struct.std::_Vector_base<int, std::allocator<int>>::_Vector_impl_data" = type { ptr, ptr, ptr }
%"class.std::vector.189" = type { %"struct.std::_Vector_base.190" }
%"struct.std::_Vector_base.190" = type { %"struct.std::_Vector_base<rocksdb::InternalKey, std::allocator<rocksdb::InternalKey>>::_Vector_impl" }
%"struct.std::_Vector_base<rocksdb::InternalKey, std::allocator<rocksdb::InternalKey>>::_Vector_impl" = type { %"struct.std::_Vector_base<rocksdb::InternalKey, std::allocator<rocksdb::InternalKey>>::_Vector_impl_data" }
%"struct.std::_Vector_base<rocksdb::InternalKey, std::allocator<rocksdb::InternalKey>>::_Vector_impl_data" = type { ptr, ptr, ptr }
%"struct.rocksdb::OffpeakTimeOption" = type { %"class.std::__cxx11::basic_string", i32, i32 }
%"struct.rocksdb::FileOptions" = type <{ %"struct.rocksdb::EnvOptions", %"struct.rocksdb::IOOptions", i8, i8, [6 x i8] }>
%"struct.rocksdb::EnvOptions" = type { i8, i8, i8, i8, i8, i8, i64, i8, i8, i64, i64, i64, ptr }
%"struct.rocksdb::IOOptions" = type <{ %"class.std::chrono::duration", i8, [3 x i8], i32, i8, [7 x i8], %"class.std::unordered_map.194", i8, i8, i8, [5 x i8] }>
%"class.std::unordered_map.194" = type { %"class.std::_Hashtable.195" }
%"class.std::_Hashtable.195" = type { ptr, i64, %"struct.std::__detail::_Hash_node_base", i64, %"struct.std::__detail::_Prime_rehash_policy", ptr }
%"struct.rocksdb::MutableCFOptions" = type { i64, i32, i64, double, i8, i64, i64, i64, %"class.std::shared_ptr.214", double, i8, i64, i64, i32, i32, i32, i64, i8, i64, i32, i64, double, i64, i64, %"class.std::vector.173", %"struct.rocksdb::CompactionOptionsFIFO", %"class.rocksdb::CompactionOptionsUniversal", i8, i64, i64, i8, i8, double, double, i64, i32, i8, i64, i8, i8, i8, i8, i8, [3 x i8], %"struct.rocksdb::CompressionOptions", %"struct.rocksdb::CompressionOptions", i8, i32, i8, i64, %"class.std::vector.222", i32, i32, %"class.std::vector.41" }
%"class.std::shared_ptr.214" = type { %"class.std::__shared_ptr.215" }
%"class.std::__shared_ptr.215" = type { ptr, %"class.std::__shared_count" }
%"struct.rocksdb::CompactionOptionsFIFO" = type { i64, i8, i64, %"class.std::vector.217" }
%"class.std::vector.217" = type { %"struct.std::_Vector_base.218" }
%"struct.std::_Vector_base.218" = type { %"struct.std::_Vector_base<rocksdb::FileTemperatureAge, std::allocator<rocksdb::FileTemperatureAge>>::_Vector_impl" }
%"struct.std::_Vector_base<rocksdb::FileTemperatureAge, std::allocator<rocksdb::FileTemperatureAge>>::_Vector_impl" = type { %"struct.std::_Vector_base<rocksdb::FileTemperatureAge, std::allocator<rocksdb::FileTemperatureAge>>::_Vector_impl_data" }
%"struct.std::_Vector_base<rocksdb::FileTemperatureAge, std::allocator<rocksdb::FileTemperatureAge>>::_Vector_impl_data" = type { ptr, ptr, ptr }
%"class.rocksdb::CompactionOptionsUniversal" = type <{ i32, i32, i32, i32, i32, i32, i8, i8, [2 x i8] }>
%"struct.rocksdb::CompressionOptions" = type <{ i32, i32, i32, i32, i32, i32, i8, [7 x i8], i64, i8, [3 x i8], i32, i8, [7 x i8] }>
%"class.std::vector.222" = type { %"struct.std::_Vector_base.223" }
%"struct.std::_Vector_base.223" = type { %"struct.std::_Vector_base<rocksdb::CompressionType, std::allocator<rocksdb::CompressionType>>::_Vector_impl" }
%"struct.std::_Vector_base<rocksdb::CompressionType, std::allocator<rocksdb::CompressionType>>::_Vector_impl" = type { %"struct.std::_Vector_base<rocksdb::CompressionType, std::allocator<rocksdb::CompressionType>>::_Vector_impl_data" }
%"struct.std::_Vector_base<rocksdb::CompressionType, std::allocator<rocksdb::CompressionType>>::_Vector_impl_data" = type { ptr, ptr, ptr }
%"class.std::shared_ptr.115" = type { %"class.std::__shared_ptr.116" }
%"class.std::__shared_ptr.116" = type { ptr, %"class.std::__shared_count" }
%"class.std::shared_ptr.227" = type { %"class.std::__shared_ptr.228" }
%"class.std::__shared_ptr.228" = type { ptr, %"class.std::__shared_count" }
%"class.rocksdb::BlobFileMetaData" = type { %"class.std::shared_ptr.230", %"class.std::unordered_set", i64, i64 }
%"class.std::shared_ptr.230" = type { %"class.std::__shared_ptr.231" }
%"class.std::__shared_ptr.231" = type { ptr, %"class.std::__shared_count" }
%"class.rocksdb::SharedBlobFileMetaData" = type { i64, i64, i64, %"class.std::__cxx11::basic_string", %"class.std::__cxx11::basic_string" }

; Function Attrs: mustprogress nounwind uwtable
define linkonce_odr noundef ptr @_ZNKSt12__shared_ptrIN7rocksdb22SharedBlobFileMetaDataELN9__gnu_cxx12_Lock_policyE2EE3getEv(ptr noundef nonnull align 8 dereferenceable(16) %this) #1 comdat align 2 {
entry:
  %this.addr = alloca ptr, align 8
  store ptr %this, ptr %this.addr, align 8
  %this1 = load ptr, ptr %this.addr, align 8
  %_M_ptr = getelementptr inbounds %"class.std::__shared_ptr.231", ptr %this1, i32 0, i32 0
  %0 = load ptr, ptr %_M_ptr, align 8
  ret ptr %0
}

; Function Attrs: mustprogress nounwind uwtable
define linkonce_odr noundef ptr @_ZNKSt19__shared_ptr_accessIN7rocksdb22SharedBlobFileMetaDataELN9__gnu_cxx12_Lock_policyE2ELb0ELb0EE6_M_getEv(ptr noundef nonnull align 1 dereferenceable(1) %this) #1 comdat align 2 {
entry:
  %this.addr = alloca ptr, align 8
  store ptr %this, ptr %this.addr, align 8
  %this1 = load ptr, ptr %this.addr, align 8
  %call = call noundef ptr @_ZNKSt12__shared_ptrIN7rocksdb22SharedBlobFileMetaDataELN9__gnu_cxx12_Lock_policyE2EE3getEv(ptr noundef nonnull align 8 dereferenceable(16) %this1) #3
  ret ptr %call
}

; Function Attrs: mustprogress nounwind uwtable
define linkonce_odr noundef ptr @_ZNKSt12__shared_ptrIN7rocksdb16BlobFileMetaDataELN9__gnu_cxx12_Lock_policyE2EE3getEv(ptr noundef nonnull align 8 dereferenceable(16) %this) #1 comdat align 2 {
entry:
  %this.addr = alloca ptr, align 8
  store ptr %this, ptr %this.addr, align 8
  %this1 = load ptr, ptr %this.addr, align 8
  %_M_ptr = getelementptr inbounds %"class.std::__shared_ptr.228", ptr %this1, i32 0, i32 0
  %0 = load ptr, ptr %_M_ptr, align 8
  ret ptr %0
}

; Function Attrs: mustprogress nounwind uwtable
define linkonce_odr noundef i64 @_ZNK7rocksdb22SharedBlobFileMetaData17GetBlobFileNumberEv(ptr noundef nonnull align 8 dereferenceable(88) %this) #1 comdat align 2 {
entry:
  %this.addr = alloca ptr, align 8
  store ptr %this, ptr %this.addr, align 8
  %this1 = load ptr, ptr %this.addr, align 8
  %blob_file_number_ = getelementptr inbounds %"class.rocksdb::SharedBlobFileMetaData", ptr %this1, i32 0, i32 0
  %0 = load i64, ptr %blob_file_number_, align 8
  ret i64 %0
}

; Function Attrs: mustprogress nounwind uwtable
define linkonce_odr noundef ptr @_ZNKSt19__shared_ptr_accessIN7rocksdb22SharedBlobFileMetaDataELN9__gnu_cxx12_Lock_policyE2ELb0ELb0EEptEv(ptr noundef nonnull align 1 dereferenceable(1) %this) #1 comdat align 2 {
entry:
  %this.addr = alloca ptr, align 8
  store ptr %this, ptr %this.addr, align 8
  %this1 = load ptr, ptr %this.addr, align 8
  %call = call noundef ptr @_ZNKSt19__shared_ptr_accessIN7rocksdb22SharedBlobFileMetaDataELN9__gnu_cxx12_Lock_policyE2ELb0ELb0EE6_M_getEv(ptr noundef nonnull align 1 dereferenceable(1) %this1) #3
  ret ptr %call
}

; Function Attrs: mustprogress nounwind uwtable
define linkonce_odr noundef ptr @_ZNKSt19__shared_ptr_accessIN7rocksdb16BlobFileMetaDataELN9__gnu_cxx12_Lock_policyE2ELb0ELb0EE6_M_getEv(ptr noundef nonnull align 1 dereferenceable(1) %this) #1 comdat align 2 {
entry:
  %this.addr = alloca ptr, align 8
  store ptr %this, ptr %this.addr, align 8
  %this1 = load ptr, ptr %this.addr, align 8
  %call = call noundef ptr @_ZNKSt12__shared_ptrIN7rocksdb16BlobFileMetaDataELN9__gnu_cxx12_Lock_policyE2EE3getEv(ptr noundef nonnull align 8 dereferenceable(16) %this1) #3
  ret ptr %call
}

; Function Attrs: mustprogress uwtable
define linkonce_odr noundef i64 @_ZNK7rocksdb16BlobFileMetaData17GetBlobFileNumberEv(ptr noundef nonnull align 8 dereferenceable(88) %this) #0 comdat align 2 {
entry:
  %this.addr = alloca ptr, align 8
  store ptr %this, ptr %this.addr, align 8
  %this1 = load ptr, ptr %this.addr, align 8
  %shared_meta_ = getelementptr inbounds %"class.rocksdb::BlobFileMetaData", ptr %this1, i32 0, i32 0
  %call = call noundef ptr @_ZNKSt19__shared_ptr_accessIN7rocksdb22SharedBlobFileMetaDataELN9__gnu_cxx12_Lock_policyE2ELb0ELb0EEptEv(ptr noundef nonnull align 1 dereferenceable(1) %shared_meta_) #3
  %call2 = call noundef i64 @_ZNK7rocksdb22SharedBlobFileMetaData17GetBlobFileNumberEv(ptr noundef nonnull align 8 dereferenceable(88) %call)
  ret i64 %call2
}

; Function Attrs: mustprogress nounwind uwtable
define linkonce_odr noundef ptr @_ZNKSt19__shared_ptr_accessIN7rocksdb16BlobFileMetaDataELN9__gnu_cxx12_Lock_policyE2ELb0ELb0EEptEv(ptr noundef nonnull align 1 dereferenceable(1) %this) #1 comdat align 2 {
entry:
  %this.addr = alloca ptr, align 8
  store ptr %this, ptr %this.addr, align 8
  %this1 = load ptr, ptr %this.addr, align 8
  %call = call noundef ptr @_ZNKSt19__shared_ptr_accessIN7rocksdb16BlobFileMetaDataELN9__gnu_cxx12_Lock_policyE2ELb0ELb0EE6_M_getEv(ptr noundef nonnull align 1 dereferenceable(1) %this1) #3
  ret ptr %call
}

; Function Attrs: mustprogress nounwind uwtable
define linkonce_odr noundef nonnull align 8 dereferenceable(16) ptr @_ZNKSt6vectorISt10shared_ptrIN7rocksdb16BlobFileMetaDataEESaIS3_EEixEm(ptr noundef nonnull align 8 dereferenceable(24) %this, i64 noundef %__n) #1 comdat align 2 {
entry:
  %this.addr = alloca ptr, align 8
  %__n.addr = alloca i64, align 8
  store ptr %this, ptr %this.addr, align 8
  store i64 %__n, ptr %__n.addr, align 8
  %this1 = load ptr, ptr %this.addr, align 8
  %_M_impl = getelementptr inbounds %"struct.std::_Vector_base.164", ptr %this1, i32 0, i32 0
  %_M_start = getelementptr inbounds %"struct.std::_Vector_base<std::shared_ptr<rocksdb::BlobFileMetaData>, std::allocator<std::shared_ptr<rocksdb::BlobFileMetaData>>>::_Vector_impl_data", ptr %_M_impl, i32 0, i32 0
  %0 = load ptr, ptr %_M_start, align 8
  %1 = load i64, ptr %__n.addr, align 8
  %add.ptr = getelementptr inbounds %"class.std::shared_ptr.227", ptr %0, i64 %1
  ret ptr %add.ptr
}

; Function Attrs: mustprogress nounwind uwtable
define linkonce_odr noundef i64 @_ZNSt14numeric_limitsImE3maxEv() #1 comdat align 2 {
entry:
  ret i64 -1
}

; Function Attrs: mustprogress nounwind uwtable
define linkonce_odr noundef i64 @_ZNKSt6vectorISt10shared_ptrIN7rocksdb16BlobFileMetaDataEESaIS3_EE4sizeEv(ptr noundef nonnull align 8 dereferenceable(24) %this) #1 comdat align 2 {
entry:
  %this.addr = alloca ptr, align 8
  store ptr %this, ptr %this.addr, align 8
  %this1 = load ptr, ptr %this.addr, align 8
  %_M_impl = getelementptr inbounds %"struct.std::_Vector_base.164", ptr %this1, i32 0, i32 0
  %_M_finish = getelementptr inbounds %"struct.std::_Vector_base<std::shared_ptr<rocksdb::BlobFileMetaData>, std::allocator<std::shared_ptr<rocksdb::BlobFileMetaData>>>::_Vector_impl_data", ptr %_M_impl, i32 0, i32 1
  %0 = load ptr, ptr %_M_finish, align 8
  %_M_impl2 = getelementptr inbounds %"struct.std::_Vector_base.164", ptr %this1, i32 0, i32 0
  %_M_start = getelementptr inbounds %"struct.std::_Vector_base<std::shared_ptr<rocksdb::BlobFileMetaData>, std::allocator<std::shared_ptr<rocksdb::BlobFileMetaData>>>::_Vector_impl_data", ptr %_M_impl2, i32 0, i32 0
  %1 = load ptr, ptr %_M_start, align 8
  %sub.ptr.lhs.cast = ptrtoint ptr %0 to i64
  %sub.ptr.rhs.cast = ptrtoint ptr %1 to i64
  %sub.ptr.sub = sub i64 %sub.ptr.lhs.cast, %sub.ptr.rhs.cast
  %sub.ptr.div = sdiv exact i64 %sub.ptr.sub, 16
  ret i64 %sub.ptr.div
}

; Function Attrs: mustprogress nounwind uwtable
define linkonce_odr noundef nonnull align 8 dereferenceable(24) ptr @_ZNK7rocksdb18VersionStorageInfo12GetBlobFilesEv(ptr noundef nonnull align 16 dereferenceable(4112) %this) #1 comdat align 2 {
entry:
  %this.addr = alloca ptr, align 8
  store ptr %this, ptr %this.addr, align 8
  %this1 = load ptr, ptr %this.addr, align 8
  %blob_files_ = getelementptr inbounds %"class.rocksdb::VersionStorageInfo", ptr %this1, i32 0, i32 12
  ret ptr %blob_files_
}

; Function Attrs: mustprogress nounwind uwtable
define linkonce_odr noundef ptr @_ZNK7rocksdb7Version12storage_infoEv(ptr noundef nonnull align 16 dereferenceable(4953) %this) #1 comdat align 2 {
entry:
  %this.addr = alloca ptr, align 8
  store ptr %this, ptr %this.addr, align 8
  %this1 = load ptr, ptr %this.addr, align 8
  %storage_info_ = getelementptr inbounds %"class.rocksdb::Version", ptr %this1, i32 0, i32 8
  ret ptr %storage_info_
}

; Function Attrs: mustprogress uwtable
define noundef i64 @_ZN7rocksdb18CompactionIterator44ComputeBlobGarbageCollectionCutoffFileNumberEPKNS0_15CompactionProxyE(ptr noundef %compaction) #0 align 2 {
entry:
  %retval = alloca i64, align 8
  %compaction.addr = alloca ptr, align 8
  %version = alloca ptr, align 8
  %storage_info = alloca ptr, align 8
  %blob_files = alloca ptr, align 8
  %cutoff_index = alloca i64, align 8
  %meta = alloca ptr, align 8
  store ptr %compaction, ptr %compaction.addr, align 8
  %0 = load ptr, ptr %compaction.addr, align 8
  %tobool = icmp ne ptr %0, null
  br i1 %tobool, label %if.end, label %if.then

if.then:                                          ; preds = %entry
  store i64 0, ptr %retval, align 8
  br label %return

if.end:                                           ; preds = %entry
  %1 = load ptr, ptr %compaction.addr, align 8
  %vtable = load ptr, ptr %1, align 8
  %vfn = getelementptr inbounds ptr, ptr %vtable, i64 9
  %2 = load ptr, ptr %vfn, align 8
  %call = call noundef zeroext i1 %2(ptr noundef nonnull align 8 dereferenceable(8) %1)
  br i1 %call, label %if.end2, label %if.then1

if.then1:                                         ; preds = %if.end
  store i64 0, ptr %retval, align 8
  br label %return

if.end2:                                          ; preds = %if.end
  %3 = load ptr, ptr %compaction.addr, align 8
  %vtable3 = load ptr, ptr %3, align 8
  %vfn4 = getelementptr inbounds ptr, ptr %vtable3, i64 12
  %4 = load ptr, ptr %vfn4, align 8
  %call5 = call noundef ptr %4(ptr noundef nonnull align 8 dereferenceable(8) %3)
  store ptr %call5, ptr %version, align 8
  %5 = load ptr, ptr %version, align 8
  %call6 = call noundef ptr @_ZNK7rocksdb7Version12storage_infoEv(ptr noundef nonnull align 16 dereferenceable(4953) %5)
  store ptr %call6, ptr %storage_info, align 8
  %6 = load ptr, ptr %storage_info, align 8
  %call7 = call noundef nonnull align 8 dereferenceable(24) ptr @_ZNK7rocksdb18VersionStorageInfo12GetBlobFilesEv(ptr noundef nonnull align 16 dereferenceable(4112) %6)
  store ptr %call7, ptr %blob_files, align 8
  %7 = load ptr, ptr %compaction.addr, align 8
  %vtable8 = load ptr, ptr %7, align 8
  %vfn9 = getelementptr inbounds ptr, ptr %vtable8, i64 10
  %8 = load ptr, ptr %vfn9, align 8
  %call10 = call noundef double %8(ptr noundef nonnull align 8 dereferenceable(8) %7)
  %9 = load ptr, ptr %blob_files, align 8
  %call11 = call noundef i64 @_ZNKSt6vectorISt10shared_ptrIN7rocksdb16BlobFileMetaDataEESaIS3_EE4sizeEv(ptr noundef nonnull align 8 dereferenceable(24) %9) #3
  %conv = uitofp i64 %call11 to double
  %mul = fmul double %call10, %conv
  %conv12 = fptoui double %mul to i64
  store i64 %conv12, ptr %cutoff_index, align 8
  %10 = load i64, ptr %cutoff_index, align 8
  %11 = load ptr, ptr %blob_files, align 8
  %call13 = call noundef i64 @_ZNKSt6vectorISt10shared_ptrIN7rocksdb16BlobFileMetaDataEESaIS3_EE4sizeEv(ptr noundef nonnull align 8 dereferenceable(24) %11) #3
  %cmp = icmp uge i64 %10, %call13
  br i1 %cmp, label %if.then14, label %if.end16

if.then14:                                        ; preds = %if.end2
  %call15 = call noundef i64 @_ZNSt14numeric_limitsImE3maxEv() #3
  store i64 %call15, ptr %retval, align 8
  br label %return

if.end16:                                         ; preds = %if.end2
  %12 = load ptr, ptr %blob_files, align 8
  %13 = load i64, ptr %cutoff_index, align 8
  %call17 = call noundef nonnull align 8 dereferenceable(16) ptr @_ZNKSt6vectorISt10shared_ptrIN7rocksdb16BlobFileMetaDataEESaIS3_EEixEm(ptr noundef nonnull align 8 dereferenceable(24) %12, i64 noundef %13) #3
  store ptr %call17, ptr %meta, align 8
  %14 = load ptr, ptr %meta, align 8
  %call18 = call noundef ptr @_ZNKSt19__shared_ptr_accessIN7rocksdb16BlobFileMetaDataELN9__gnu_cxx12_Lock_policyE2ELb0ELb0EEptEv(ptr noundef nonnull align 1 dereferenceable(1) %14) #3
  %call19 = call noundef i64 @_ZNK7rocksdb16BlobFileMetaData17GetBlobFileNumberEv(ptr noundef nonnull align 8 dereferenceable(88) %call18)
  store i64 %call19, ptr %retval, align 8
  br label %return

return:                                           ; preds = %if.end16, %if.then14, %if.then1, %if.then
  %15 = load i64, ptr %retval, align 8
  ret i64 %15
}