; Function Attrs: mustprogress uwtable
define noundef i64 @_ZN7rocksdb18CompactionIterator44ComputeBlobGarbageCollectionCutoffFileNumberEPKNS0_15CompactionProxyE(ptr noundef %compaction) local_unnamed_addr #3 align 2 {
entry:
  %tobool.not = icmp eq ptr %compaction, null
  br i1 %tobool.not, label %return, label %if.end

if.end:                                           ; preds = %entry
  %vtable = load ptr, ptr %compaction, align 8
  %vfn = getelementptr inbounds i8, ptr %vtable, i64 72
  %0 = load ptr, ptr %vfn, align 8
  %call = tail call noundef zeroext i1 %0(ptr noundef nonnull align 8 dereferenceable(8) %compaction)
  br i1 %call, label %if.end2, label %return

if.end2:                                          ; preds = %if.end
  %vtable3 = load ptr, ptr %compaction, align 8
  %vfn4 = getelementptr inbounds i8, ptr %vtable3, i64 96
  %1 = load ptr, ptr %vfn4, align 8
  %call5 = tail call noundef ptr %1(ptr noundef nonnull align 8 dereferenceable(8) %compaction)
  %blob_files_.i = getelementptr inbounds i8, ptr %call5, i64 2840
  %vtable8 = load ptr, ptr %compaction, align 8
  %vfn9 = getelementptr inbounds i8, ptr %vtable8, i64 80
  %2 = load ptr, ptr %vfn9, align 8
  %call10 = tail call noundef double %2(ptr noundef nonnull align 8 dereferenceable(8) %compaction)
  %_M_finish.i = getelementptr inbounds i8, ptr %call5, i64 2848
  %3 = load ptr, ptr %_M_finish.i, align 8
  %4 = load ptr, ptr %blob_files_.i, align 8
  %sub.ptr.lhs.cast.i = ptrtoint ptr %3 to i64
  %sub.ptr.rhs.cast.i = ptrtoint ptr %4 to i64
  %sub.ptr.sub.i = sub i64 %sub.ptr.lhs.cast.i, %sub.ptr.rhs.cast.i
  %sub.ptr.div.i = ashr exact i64 %sub.ptr.sub.i, 4
  %conv = uitofp i64 %sub.ptr.div.i to double
  %mul = fmul double %call10, %conv
  %conv12 = fptoui double %mul to i64
  %cmp.not = icmp ugt i64 %sub.ptr.div.i, %conv12
  br i1 %cmp.not, label %if.end16, label %return

if.end16:                                         ; preds = %if.end2
  %add.ptr.i = getelementptr inbounds %"class.std::shared_ptr.227", ptr %4, i64 %conv12
  %5 = load ptr, ptr %add.ptr.i, align 8
  %6 = load ptr, ptr %5, align 8
  %7 = load i64, ptr %6, align 8
  br label %return

return:                                           ; preds = %if.end2, %if.end, %entry, %if.end16
  %retval.0 = phi i64 [ %7, %if.end16 ], [ 0, %entry ], [ 0, %if.end ], [ -1, %if.end2 ]
  ret i64 %retval.0
}